target datalayout = "e-m:e-p270:32:32-p271:32:32-p272:64:64-i64:64-i128:128-f80:128-n8:16:32:64-S128"
target triple = "x86_64-pc-linux-gnu"

%struct.DirectoryMethodData = type { %struct.WalWriteMethod, ptr }
%struct.WalWriteMethod = type { ptr, i32, i32, i8, ptr, i32 }
%struct.stat = type { i64, i64, i64, i32, i32, i32, i32, i64, i64, i64, i64, %struct.timespec, %struct.timespec, %struct.timespec, [3 x i64] }
%struct.timespec = type { i64, i64 }

@.str.3 = private unnamed_addr constant [6 x i8] c"%s/%s\00", align 1

; Function Attrs: nounwind uwtable
define internal i64 @dir_get_file_size(ptr noundef %0, ptr noundef %1) #0 {
  %3 = alloca i64, align 8
  %4 = alloca ptr, align 8
  %5 = alloca ptr, align 8
  %6 = alloca ptr, align 8
  %7 = alloca %struct.stat, align 8
  %8 = alloca [1024 x i8], align 16
  %9 = alloca i32, align 4
  store ptr %0, ptr %4, align 8
  store ptr %1, ptr %5, align 8
  call void @llvm.lifetime.start.p0(i64 8, ptr %6) #9
  %10 = load ptr, ptr %4, align 8
  store ptr %10, ptr %6, align 8
  call void @llvm.lifetime.start.p0(i64 144, ptr %7) #9
  call void @llvm.lifetime.start.p0(i64 1024, ptr %8) #9
  %11 = getelementptr inbounds [1024 x i8], ptr %8, i64 0, i64 0
  %12 = load ptr, ptr %6, align 8
  %13 = getelementptr inbounds nuw %struct.DirectoryMethodData, ptr %12, i32 0, i32 1
  %14 = load ptr, ptr %13, align 8
  %15 = load ptr, ptr %5, align 8
  %16 = call i32 (ptr, i64, ptr, ...) @pg_snprintf(ptr noundef %11, i64 noundef 1024, ptr noundef @.str.3, ptr noundef %14, ptr noundef %15)
  %17 = getelementptr inbounds [1024 x i8], ptr %8, i64 0, i64 0
  %18 = call i32 @stat(ptr noundef %17, ptr noundef %7) #9
  %19 = icmp ne i32 %18, 0
  br i1 %19, label %20, label %25

20:                                               ; preds = %2
  %21 = call ptr @__errno_location() #11
  %22 = load i32, ptr %21, align 4
  %23 = load ptr, ptr %4, align 8
  %24 = getelementptr inbounds nuw %struct.WalWriteMethod, ptr %23, i32 0, i32 5
  store i32 %22, ptr %24, align 8
  store i64 -1, ptr %3, align 8
  store i32 1, ptr %9, align 4
  br label %28

25:                                               ; preds = %2
  %26 = getelementptr inbounds nuw %struct.stat, ptr %7, i32 0, i32 8
  %27 = load i64, ptr %26, align 8
  store i64 %27, ptr %3, align 8
  store i32 1, ptr %9, align 4
  br label %28

28:                                               ; preds = %25, %20
  call void @llvm.lifetime.end.p0(i64 1024, ptr %8) #9
  call void @llvm.lifetime.end.p0(i64 144, ptr %7) #9
  call void @llvm.lifetime.end.p0(i64 8, ptr %6) #9
  %29 = load i64, ptr %3, align 8
  ret i64 %29
}