; Function Attrs: nounwind uwtable
define internal i64 @dir_get_file_size(ptr noundef captures(none) %0, ptr noundef %1) #0 {
  %3 = alloca %struct.stat, align 8
  %4 = alloca [1024 x i8], align 16
  call void @llvm.lifetime.start.p0(i64 144, ptr nonnull %3) #12
  call void @llvm.lifetime.start.p0(i64 1024, ptr nonnull %4) #12
  %5 = getelementptr inbounds nuw i8, ptr %0, i64 40
  %6 = load ptr, ptr %5, align 8
  %7 = call i32 (ptr, i64, ptr, ...) @pg_snprintf(ptr noundef nonnull %4, i64 noundef 1024, ptr noundef nonnull @.str.3, ptr noundef %6, ptr noundef %1) #12
  %8 = call i32 @stat(ptr noundef nonnull %4, ptr noundef nonnull %3) #12
  %.not = icmp eq i32 %8, 0
  br i1 %.not, label %13, label %9

9:                                                ; preds = %2
  %10 = tail call ptr @__errno_location() #14
  %11 = load i32, ptr %10, align 4
  %12 = getelementptr inbounds nuw i8, ptr %0, i64 32
  store i32 %11, ptr %12, align 8
  br label %16

13:                                               ; preds = %2
  %14 = getelementptr inbounds nuw i8, ptr %3, i64 48
  %15 = load i64, ptr %14, align 8
  br label %16

16:                                               ; preds = %13, %9
  %.0 = phi i64 [ -1, %9 ], [ %15, %13 ]
  call void @llvm.lifetime.end.p0(i64 1024, ptr nonnull %4) #12
  call void @llvm.lifetime.end.p0(i64 144, ptr nonnull %3) #12
  ret i64 %.0
}